; Function Attrs: mustprogress nounwind uwtable
define dso_local noundef zeroext i1 @_ZN4llvm19hasLessThanNumFusedERKNS_5SUnitEj(ptr noundef nonnull align 8 dereferenceable(255) %0, i32 noundef %1) local_unnamed_addr #0 {
  %3 = getelementptr inbounds nuw i8, ptr %0, i64 40
  %4 = load ptr, ptr %3, align 8
  %5 = tail call noundef i64 @_ZNK4llvm15SmallVectorBaseIjE4sizeEv(ptr noundef nonnull align 8 dereferenceable(16) %3) #11
  %.not11.i14 = icmp eq i64 %5, 0
  br i1 %.not11.i14, label %_ZL16getPredClusterSURKN4llvm5SUnitE.exit.thread, label %.lr.ph.i.preheader.preheader

.lr.ph.i.preheader.preheader:                     ; preds = %2
  %6 = getelementptr inbounds %"class.llvm::SDep", ptr %4, i64 %5
  br label %.lr.ph.i.preheader

.lr.ph.i.preheader:                               ; preds = %.lr.ph.i.preheader.preheader, %22
  %7 = phi ptr [ %28, %22 ], [ %6, %.lr.ph.i.preheader.preheader ]
  %8 = phi ptr [ %26, %22 ], [ %4, %.lr.ph.i.preheader.preheader ]
  %.0615 = phi i32 [ %24, %22 ], [ 1, %.lr.ph.i.preheader.preheader ]
  br label %.lr.ph.i

9:                                                ; preds = %.lr.ph.i
  %10 = getelementptr inbounds nuw i8, ptr %.01012.i, i64 16
  %.not.i = icmp eq ptr %10, %7
  br i1 %.not.i, label %_ZL16getPredClusterSURKN4llvm5SUnitE.exit.thread, label %.lr.ph.i

.lr.ph.i:                                         ; preds = %.lr.ph.i.preheader, %9
  %.01012.i = phi ptr [ %10, %9 ], [ %8, %.lr.ph.i.preheader ]
  %.0.copyload.i.i.i.i.i.i = load i64, ptr %.01012.i, align 8
  %11 = and i64 %.0.copyload.i.i.i.i.i.i, 6
  %12 = icmp eq i64 %11, 6
  %13 = getelementptr inbounds nuw i8, ptr %.01012.i, i64 8
  %14 = load i32, ptr %13, align 8
  %15 = icmp eq i32 %14, 5
  %16 = select i1 %12, i1 %15, i1 false
  br i1 %16, label %_ZL16getPredClusterSURKN4llvm5SUnitE.exit, label %9

_ZL16getPredClusterSURKN4llvm5SUnitE.exit.thread: ; preds = %22, %9, %2
  %.0613 = phi i32 [ 1, %2 ], [ %.0615, %9 ], [ %24, %22 ]
  %17 = icmp ult i32 %.0613, %1
  br label %.loopexit

_ZL16getPredClusterSURKN4llvm5SUnitE.exit:        ; preds = %.lr.ph.i
  %18 = and i64 %.0.copyload.i.i.i.i.i.i, -8
  %19 = icmp ne i64 %18, 0
  %20 = icmp ult i32 %.0615, %1
  %21 = select i1 %19, i1 %20, i1 false
  br i1 %21, label %22, label %.loopexit

22:                                               ; preds = %_ZL16getPredClusterSURKN4llvm5SUnitE.exit
  %23 = inttoptr i64 %18 to ptr
  %24 = add nuw i32 %.0615, 1
  %25 = getelementptr inbounds nuw i8, ptr %23, i64 40
  %26 = load ptr, ptr %25, align 8
  %27 = tail call noundef i64 @_ZNK4llvm15SmallVectorBaseIjE4sizeEv(ptr noundef nonnull align 8 dereferenceable(16) %25) #11
  %28 = getelementptr inbounds %"class.llvm::SDep", ptr %26, i64 %27
  %.not11.i = icmp eq i64 %27, 0
  br i1 %.not11.i, label %_ZL16getPredClusterSURKN4llvm5SUnitE.exit.thread, label %.lr.ph.i.preheader, !llvm.loop !4

.loopexit:                                        ; preds = %_ZL16getPredClusterSURKN4llvm5SUnitE.exit, %_ZL16getPredClusterSURKN4llvm5SUnitE.exit.thread
  %29 = phi i1 [ %17, %_ZL16getPredClusterSURKN4llvm5SUnitE.exit.thread ], [ %20, %_ZL16getPredClusterSURKN4llvm5SUnitE.exit ]
  ret i1 %29
}